; Function Attrs: null_pointer_is_valid sspstrong uwtable
define internal fastcc range(i32 23, 31) i32 @dissect_etc_pd_led_information(ptr noundef %0, ptr noundef %1, i8 noundef zeroext %2) unnamed_addr #1 {
  switch i8 %2, label %17 [
    i8 32, label %.sink.split
    i8 33, label %4
  ]

4:                                                ; preds = %3
  %5 = load i32, ptr @hf_etc_pd_led_information_led_number, align 4
  %6 = tail call ptr @proto_tree_add_item(ptr noundef %1, i32 noundef %5, ptr noundef %0, i32 noundef 23, i32 noundef 1, i32 noundef 0)
  %7 = load i32, ptr @hf_etc_pd_led_information_type, align 4
  %8 = tail call ptr @proto_tree_add_item(ptr noundef %1, i32 noundef %7, ptr noundef %0, i32 noundef 24, i32 noundef 1, i32 noundef 0)
  %9 = load i32, ptr @hf_etc_pd_led_information_dmx_control_channel, align 4
  %10 = tail call ptr @proto_tree_add_item(ptr noundef %1, i32 noundef %9, ptr noundef %0, i32 noundef 25, i32 noundef 1, i32 noundef 0)
  %11 = load i32, ptr @hf_etc_pd_led_information_drive_current, align 4
  %12 = tail call ptr @proto_tree_add_item(ptr noundef %1, i32 noundef %11, ptr noundef %0, i32 noundef 26, i32 noundef 2, i32 noundef 0)
  %13 = load i32, ptr @hf_etc_pd_led_information_gamut_polygon_order, align 4
  %14 = tail call ptr @proto_tree_add_item(ptr noundef %1, i32 noundef %13, ptr noundef %0, i32 noundef 28, i32 noundef 1, i32 noundef 0)
  br label %.sink.split

.sink.split:                                      ; preds = %3, %4
  %hf_etc_pd_led_information_quantity.sink = phi ptr [ @hf_etc_pd_led_information_quantity, %4 ], [ @hf_etc_pd_led_information_led_number, %3 ]
  %.sink28 = phi i32 [ 29, %4 ], [ 23, %3 ]
  %.0.ph = phi i32 [ 30, %4 ], [ 24, %3 ]
  %15 = load i32, ptr %hf_etc_pd_led_information_quantity.sink, align 4
  %16 = tail call ptr @proto_tree_add_item(ptr noundef %1, i32 noundef %15, ptr noundef %0, i32 noundef %.sink28, i32 noundef 1, i32 noundef 0)
  br label %17

17:                                               ; preds = %.sink.split, %3
  %.0 = phi i32 [ 23, %3 ], [ %.0.ph, %.sink.split ]
  ret i32 %.0
}